target datalayout = "e-m:e-p270:32:32-p271:32:32-p272:64:64-i64:64-i128:128-f80:128-n8:16:32:64-S128"
target triple = "x86_64-pc-linux-gnu"

%struct.Mfs_Man_t_ = type { ptr, ptr, ptr, ptr, i32, ptr, ptr, ptr, ptr, ptr, ptr, ptr, ptr, i32, i32, i32, i32, ptr, ptr, i32, i32, i32, ptr, ptr, ptr, ptr, ptr, ptr, ptr, i32, i32, ptr, i32, i32, i32, [128 x i32], i32, i32, i32, i32, i32, i32, i32, i32, i32, i32, i32, i32, i32, i32, double, i32, i32, i32, i32, float, float, i64, i64, i64, i64, i64, i64, i64, i64 }
%struct.sat_solver_t = type { i32, i32, i32, i32, %struct.Sat_Mem_t_, i32, i32, ptr, ptr, i32, i32, i32, i32, i32, i64, i64, i64, ptr, ptr, i32, i32, %struct.veci_t, ptr, i32, ptr, ptr, ptr, ptr, ptr, ptr, ptr, ptr, %struct.veci_t, %struct.veci_t, %struct.veci_t, %struct.veci_t, ptr, %struct.veci_t, i32, i32, i32, double, double, i32, i32, i32, %struct.stats_t, i32, i32, i32, i32, i32, i64, i64, i64, %struct.veci_t, ptr, i32, i32, i32, %struct.veci_t, %struct.veci_t, i32, i32, i32, ptr, ptr, i32, ptr, i32, i32, %struct.veci_t, %struct.veci_t, %struct.veci_t, ptr, ptr, i32, ptr }
%struct.Sat_Mem_t_ = type { [2 x i32], [2 x i32], [2 x i32], [2 x i32], i32, i32, i32, i32, ptr }
%struct.stats_t = type { i32, i32, i32, i64, i64, i64, i64, i64, i64, i64 }
%struct.veci_t = type { i32, i32, ptr }
%struct.Vec_Int_t_ = type { i32, i32, ptr }

; Function Attrs: inlinehint nounwind uwtable
define internal void @Abc_InfoSetBit(ptr noundef %0, i32 noundef %1) #3 {
  %3 = alloca ptr, align 8
  %4 = alloca i32, align 4
  store ptr %0, ptr %3, align 8, !tbaa !49
  store i32 %1, ptr %4, align 4, !tbaa !38
  %5 = load i32, ptr %4, align 4, !tbaa !38
  %6 = and i32 %5, 31
  %7 = shl i32 1, %6
  %8 = load ptr, ptr %3, align 8, !tbaa !49
  %9 = load i32, ptr %4, align 4, !tbaa !38
  %10 = ashr i32 %9, 5
  %11 = sext i32 %10 to i64
  %12 = getelementptr inbounds i32, ptr %8, i64 %11
  %13 = load i32, ptr %12, align 4, !tbaa !38
  %14 = or i32 %13, %7
  store i32 %14, ptr %12, align 4, !tbaa !38
  ret void
}

; Function Attrs: inlinehint nounwind uwtable
define internal i32 @lit_neg(i32 noundef %0) #3 {
  %2 = alloca i32, align 4
  store i32 %0, ptr %2, align 4, !tbaa !38
  %3 = load i32, ptr %2, align 4, !tbaa !38
  %4 = xor i32 %3, 1
  ret i32 %4
}

; Function Attrs: inlinehint nounwind uwtable
define internal i32 @sat_solver_var_value(ptr noundef %0, i32 noundef %1) #3 {
  %3 = alloca ptr, align 8
  %4 = alloca i32, align 4
  store ptr %0, ptr %3, align 8, !tbaa !47
  store i32 %1, ptr %4, align 4, !tbaa !38
  %5 = load ptr, ptr %3, align 8, !tbaa !47
  %6 = getelementptr inbounds nuw %struct.sat_solver_t, ptr %5, i32 0, i32 36
  %7 = load ptr, ptr %6, align 8, !tbaa !48
  %8 = load i32, ptr %4, align 4, !tbaa !38
  %9 = sext i32 %8 to i64
  %10 = getelementptr inbounds i32, ptr %7, i64 %9
  %11 = load i32, ptr %10, align 4, !tbaa !38
  %12 = icmp eq i32 %11, 1
  %13 = zext i1 %12 to i32
  ret i32 %13
}

; Function Attrs: inlinehint nounwind uwtable
define internal i32 @toLit(i32 noundef %0) #3 {
  %2 = alloca i32, align 4
  store i32 %0, ptr %2, align 4, !tbaa !38
  %3 = load i32, ptr %2, align 4, !tbaa !38
  %4 = load i32, ptr %2, align 4, !tbaa !38
  %5 = add nsw i32 %3, %4
  ret i32 %5
}

; Function Attrs: inlinehint nounwind uwtable
define internal i32 @Vec_IntEntry(ptr noundef %0, i32 noundef %1) #3 {
  %3 = alloca ptr, align 8
  %4 = alloca i32, align 4
  store ptr %0, ptr %3, align 8, !tbaa !43
  store i32 %1, ptr %4, align 4, !tbaa !38
  %5 = load ptr, ptr %3, align 8, !tbaa !43
  %6 = getelementptr inbounds nuw %struct.Vec_Int_t_, ptr %5, i32 0, i32 2
  %7 = load ptr, ptr %6, align 8, !tbaa !46
  %8 = load i32, ptr %4, align 4, !tbaa !38
  %9 = sext i32 %8 to i64
  %10 = getelementptr inbounds i32, ptr %7, i64 %9
  %11 = load i32, ptr %10, align 4, !tbaa !38
  ret i32 %11
}

; Function Attrs: inlinehint nounwind uwtable
define internal i32 @Vec_IntSize(ptr noundef %0) #3 {
  %2 = alloca ptr, align 8
  store ptr %0, ptr %2, align 8, !tbaa !43
  %3 = load ptr, ptr %2, align 8, !tbaa !43
  %4 = getelementptr inbounds nuw %struct.Vec_Int_t_, ptr %3, i32 0, i32 1
  %5 = load i32, ptr %4, align 4, !tbaa !44
  ret i32 %5
}

; Function Attrs: nounwind uwtable
define i32 @Abc_NtkMfsSolveSat_iter(ptr noundef %0) #0 {
  %2 = alloca i32, align 4
  %3 = alloca ptr, align 8
  %4 = alloca [12 x i32], align 16
  %5 = alloca i32, align 4
  %6 = alloca i32, align 4
  %7 = alloca i32, align 4
  %8 = alloca i32, align 4
  %9 = alloca i32, align 4
  %10 = alloca i32, align 4
  store ptr %0, ptr %3, align 8, !tbaa !3
  call void @llvm.lifetime.start.p0(i64 48, ptr %4) #7
  call void @llvm.lifetime.start.p0(i64 4, ptr %5) #7
  call void @llvm.lifetime.start.p0(i64 4, ptr %6) #7
  call void @llvm.lifetime.start.p0(i64 4, ptr %7) #7
  call void @llvm.lifetime.start.p0(i64 4, ptr %8) #7
  call void @llvm.lifetime.start.p0(i64 4, ptr %9) #7
  %11 = load ptr, ptr %3, align 8, !tbaa !3
  %12 = getelementptr inbounds nuw %struct.Mfs_Man_t_, ptr %11, i32 0, i32 29
  %13 = load i32, ptr %12, align 8, !tbaa !8
  %14 = icmp ne i32 %13, 0
  br i1 %14, label %15, label %28

15:                                               ; preds = %1
  %16 = load ptr, ptr %3, align 8, !tbaa !3
  %17 = getelementptr inbounds nuw %struct.Mfs_Man_t_, ptr %16, i32 0, i32 29
  %18 = load i32, ptr %17, align 8, !tbaa !8
  %19 = sext i32 %18 to i64
  %20 = load ptr, ptr %3, align 8, !tbaa !3
  %21 = getelementptr inbounds nuw %struct.Mfs_Man_t_, ptr %20, i32 0, i32 24
  %22 = load ptr, ptr %21, align 8, !tbaa !24
  %23 = getelementptr inbounds nuw %struct.sat_solver_t, ptr %22, i32 0, i32 46
  %24 = getelementptr inbounds nuw %struct.stats_t, ptr %23, i32 0, i32 6
  %25 = load i64, ptr %24, align 8, !tbaa !25
  %26 = icmp sle i64 %19, %25
  br i1 %26, label %27, label %28

27:                                               ; preds = %15
  store i32 -1, ptr %2, align 4
  store i32 1, ptr %10, align 4
  br label %132

28:                                               ; preds = %15, %1
  %29 = load ptr, ptr %3, align 8, !tbaa !3
  %30 = getelementptr inbounds nuw %struct.Mfs_Man_t_, ptr %29, i32 0, i32 29
  %31 = load i32, ptr %30, align 8, !tbaa !8
  %32 = icmp ne i32 %31, 0
  br i1 %32, label %33, label %45

33:                                               ; preds = %28
  %34 = load ptr, ptr %3, align 8, !tbaa !3
  %35 = getelementptr inbounds nuw %struct.Mfs_Man_t_, ptr %34, i32 0, i32 29
  %36 = load i32, ptr %35, align 8, !tbaa !8
  %37 = sext i32 %36 to i64
  %38 = load ptr, ptr %3, align 8, !tbaa !3
  %39 = getelementptr inbounds nuw %struct.Mfs_Man_t_, ptr %38, i32 0, i32 24
  %40 = load ptr, ptr %39, align 8, !tbaa !24
  %41 = getelementptr inbounds nuw %struct.sat_solver_t, ptr %40, i32 0, i32 46
  %42 = getelementptr inbounds nuw %struct.stats_t, ptr %41, i32 0, i32 6
  %43 = load i64, ptr %42, align 8, !tbaa !25
  %44 = sub nsw i64 %37, %43
  br label %46

45:                                               ; preds = %28
  br label %46

46:                                               ; preds = %45, %33
  %47 = phi i64 [ %44, %33 ], [ 0, %45 ]
  %48 = trunc i64 %47 to i32
  store i32 %48, ptr %6, align 4, !tbaa !38
  %49 = load ptr, ptr %3, align 8, !tbaa !3
  %50 = getelementptr inbounds nuw %struct.Mfs_Man_t_, ptr %49, i32 0, i32 24
  %51 = load ptr, ptr %50, align 8, !tbaa !24
  %52 = load i32, ptr %6, align 4, !tbaa !38
  %53 = sext i32 %52 to i64
  %54 = call i32 @sat_solver_solve(ptr noundef %51, ptr noundef null, ptr noundef null, i64 noundef %53, i64 noundef 0, i64 noundef 0, i64 noundef 0)
  store i32 %54, ptr %5, align 4, !tbaa !38
  %55 = load i32, ptr %5, align 4, !tbaa !38
  %56 = icmp eq i32 %55, 0
  br i1 %56, label %57, label %58

57:                                               ; preds = %46
  store i32 -1, ptr %2, align 4
  store i32 1, ptr %10, align 4
  br label %132

58:                                               ; preds = %46
  %59 = load i32, ptr %5, align 4, !tbaa !38
  %60 = icmp eq i32 %59, -1
  br i1 %60, label %61, label %62

61:                                               ; preds = %58
  store i32 0, ptr %2, align 4
  store i32 1, ptr %10, align 4
  br label %132

62:                                               ; preds = %58
  %63 = load ptr, ptr %3, align 8, !tbaa !3
  %64 = getelementptr inbounds nuw %struct.Mfs_Man_t_, ptr %63, i32 0, i32 34
  %65 = load i32, ptr %64, align 8, !tbaa !39
  %66 = add nsw i32 %65, 1
  store i32 %66, ptr %64, align 8, !tbaa !39
  store i32 0, ptr %9, align 4, !tbaa !38
  store i32 0, ptr %8, align 4, !tbaa !38
  br label %67

67:                                               ; preds = %108, %62
  %68 = load i32, ptr %8, align 4, !tbaa !38
  %69 = load ptr, ptr %3, align 8, !tbaa !3
  %70 = getelementptr inbounds nuw %struct.Mfs_Man_t_, ptr %69, i32 0, i32 11
  %71 = load ptr, ptr %70, align 8, !tbaa !40
  %72 = call i32 @Vec_IntSize(ptr noundef %71)
  %73 = icmp slt i32 %68, %72
  br i1 %73, label %74, label %80

74:                                               ; preds = %67
  %75 = load ptr, ptr %3, align 8, !tbaa !3
  %76 = getelementptr inbounds nuw %struct.Mfs_Man_t_, ptr %75, i32 0, i32 11
  %77 = load ptr, ptr %76, align 8, !tbaa !40
  %78 = load i32, ptr %8, align 4, !tbaa !38
  %79 = call i32 @Vec_IntEntry(ptr noundef %77, i32 noundef %78)
  store i32 %79, ptr %7, align 4, !tbaa !38
  br label %80

80:                                               ; preds = %74, %67
  %81 = phi i1 [ false, %67 ], [ true, %74 ]
  br i1 %81, label %82, label %111

82:                                               ; preds = %80
  %83 = load i32, ptr %7, align 4, !tbaa !38
  %84 = call i32 @toLit(i32 noundef %83)
  %85 = load i32, ptr %8, align 4, !tbaa !38
  %86 = sext i32 %85 to i64
  %87 = getelementptr inbounds [12 x i32], ptr %4, i64 0, i64 %86
  store i32 %84, ptr %87, align 4, !tbaa !38
  %88 = load ptr, ptr %3, align 8, !tbaa !3
  %89 = getelementptr inbounds nuw %struct.Mfs_Man_t_, ptr %88, i32 0, i32 24
  %90 = load ptr, ptr %89, align 8, !tbaa !24
  %91 = load i32, ptr %7, align 4, !tbaa !38
  %92 = call i32 @sat_solver_var_value(ptr noundef %90, i32 noundef %91)
  %93 = icmp ne i32 %92, 0
  br i1 %93, label %94, label %107

94:                                               ; preds = %82
  %95 = load i32, ptr %8, align 4, !tbaa !38
  %96 = shl i32 1, %95
  %97 = load i32, ptr %9, align 4, !tbaa !38
  %98 = or i32 %97, %96
  store i32 %98, ptr %9, align 4, !tbaa !38
  %99 = load i32, ptr %8, align 4, !tbaa !38
  %100 = sext i32 %99 to i64
  %101 = getelementptr inbounds [12 x i32], ptr %4, i64 0, i64 %100
  %102 = load i32, ptr %101, align 4, !tbaa !38
  %103 = call i32 @lit_neg(i32 noundef %102)
  %104 = load i32, ptr %8, align 4, !tbaa !38
  %105 = sext i32 %104 to i64
  %106 = getelementptr inbounds [12 x i32], ptr %4, i64 0, i64 %105
  store i32 %103, ptr %106, align 4, !tbaa !38
  br label %107

107:                                              ; preds = %94, %82
  br label %108

108:                                              ; preds = %107
  %109 = load i32, ptr %8, align 4, !tbaa !38
  %110 = add nsw i32 %109, 1
  store i32 %110, ptr %8, align 4, !tbaa !38
  br label %67, !llvm.loop !41

111:                                              ; preds = %80
  %112 = load ptr, ptr %3, align 8, !tbaa !3
  %113 = getelementptr inbounds nuw %struct.Mfs_Man_t_, ptr %112, i32 0, i32 35
  %114 = getelementptr inbounds [128 x i32], ptr %113, i64 0, i64 0
  %115 = load i32, ptr %9, align 4, !tbaa !38
  call void @Abc_InfoSetBit(ptr noundef %114, i32 noundef %115)
  %116 = load ptr, ptr %3, align 8, !tbaa !3
  %117 = getelementptr inbounds nuw %struct.Mfs_Man_t_, ptr %116, i32 0, i32 24
  %118 = load ptr, ptr %117, align 8, !tbaa !24
  %119 = getelementptr inbounds [12 x i32], ptr %4, i64 0, i64 0
  %120 = getelementptr inbounds [12 x i32], ptr %4, i64 0, i64 0
  %121 = load ptr, ptr %3, align 8, !tbaa !3
  %122 = getelementptr inbounds nuw %struct.Mfs_Man_t_, ptr %121, i32 0, i32 11
  %123 = load ptr, ptr %122, align 8, !tbaa !40
  %124 = call i32 @Vec_IntSize(ptr noundef %123)
  %125 = sext i32 %124 to i64
  %126 = getelementptr inbounds i32, ptr %120, i64 %125
  %127 = call i32 @sat_solver_addclause(ptr noundef %118, ptr noundef %119, ptr noundef %126)
  store i32 %127, ptr %5, align 4, !tbaa !38
  %128 = load i32, ptr %5, align 4, !tbaa !38
  %129 = icmp eq i32 %128, 0
  br i1 %129, label %130, label %131

130:                                              ; preds = %111
  store i32 0, ptr %2, align 4
  store i32 1, ptr %10, align 4
  br label %132

131:                                              ; preds = %111
  store i32 1, ptr %2, align 4
  store i32 1, ptr %10, align 4
  br label %132

132:                                              ; preds = %131, %130, %61, %57, %27
  call void @llvm.lifetime.end.p0(i64 4, ptr %9) #7
  call void @llvm.lifetime.end.p0(i64 4, ptr %8) #7
  call void @llvm.lifetime.end.p0(i64 4, ptr %7) #7
  call void @llvm.lifetime.end.p0(i64 4, ptr %6) #7
  call void @llvm.lifetime.end.p0(i64 4, ptr %5) #7
  call void @llvm.lifetime.end.p0(i64 48, ptr %4) #7
  %133 = load i32, ptr %2, align 4
  ret i32 %133
}