; Function Attrs: nounwind uwtable
define range(i32 -1, 2) i32 @Abc_NtkMfsSolveSat_iter(ptr noundef captures(none) %0) local_unnamed_addr #0 {
  %2 = alloca [12 x i32], align 16
  call void @llvm.lifetime.start.p0(i64 48, ptr nonnull %2) #8
  %3 = getelementptr inbounds nuw i8, ptr %0, i64 208
  %4 = load i32, ptr %3, align 8, !tbaa !3
  %.not = icmp eq i32 %4, 0
  br i1 %.not, label %..thread_crit_edge, label %5

..thread_crit_edge:                               ; preds = %1
  %.phi.trans.insert = getelementptr inbounds nuw i8, ptr %0, i64 168
  %.pre = load ptr, ptr %.phi.trans.insert, align 8, !tbaa !22
  br label %.thread

5:                                                ; preds = %1
  %6 = sext i32 %4 to i64
  %7 = getelementptr inbounds nuw i8, ptr %0, i64 168
  %8 = load ptr, ptr %7, align 8, !tbaa !22
  %9 = getelementptr inbounds nuw i8, ptr %8, i64 440
  %10 = load i64, ptr %9, align 8, !tbaa !23
  %.not34 = icmp slt i64 %10, %6
  br i1 %.not34, label %11, label %58

11:                                               ; preds = %5
  %12 = trunc i64 %10 to i32
  %13 = sub i32 %4, %12
  %14 = sext i32 %13 to i64
  br label %.thread

.thread:                                          ; preds = %..thread_crit_edge, %11
  %15 = phi ptr [ %8, %11 ], [ %.pre, %..thread_crit_edge ]
  %16 = phi i64 [ %14, %11 ], [ 0, %..thread_crit_edge ]
  %17 = tail call i32 @sat_solver_solve(ptr noundef %15, ptr noundef null, ptr noundef null, i64 noundef %16, i64 noundef 0, i64 noundef 0, i64 noundef 0) #8
  switch i32 %17, label %19 [
    i32 0, label %58
    i32 -1, label %18
  ]

18:                                               ; preds = %.thread
  br label %58

19:                                               ; preds = %.thread
  %20 = getelementptr inbounds nuw i8, ptr %0, i64 168
  %21 = getelementptr inbounds nuw i8, ptr %0, i64 232
  %22 = load i32, ptr %21, align 8, !tbaa !36
  %23 = add nsw i32 %22, 1
  store i32 %23, ptr %21, align 8, !tbaa !36
  %24 = getelementptr inbounds nuw i8, ptr %0, i64 88
  %25 = load ptr, ptr %24, align 8, !tbaa !37
  %26 = getelementptr i8, ptr %25, i64 4
  %.val42 = load i32, ptr %26, align 4, !tbaa !38
  %27 = icmp sgt i32 %.val42, 0
  %.pre47 = load ptr, ptr %20, align 8, !tbaa !22
  br i1 %27, label %.lr.ph, label %.critedge

.lr.ph:                                           ; preds = %19
  %28 = getelementptr i8, ptr %25, i64 8
  %.val38 = load ptr, ptr %28, align 8, !tbaa !40
  %29 = getelementptr i8, ptr %.pre47, i64 328
  %.val39 = load ptr, ptr %29, align 8, !tbaa !41
  %30 = zext nneg i32 %.val42 to i64
  br label %31

31:                                               ; preds = %.lr.ph, %44
  %indvars.iv = phi i64 [ 0, %.lr.ph ], [ %indvars.iv.next, %44 ]
  %.044 = phi i32 [ 0, %.lr.ph ], [ %.1, %44 ]
  %32 = getelementptr inbounds nuw i32, ptr %.val38, i64 %indvars.iv
  %33 = load i32, ptr %32, align 4, !tbaa !42
  %34 = shl nsw i32 %33, 1
  %35 = getelementptr inbounds nuw [12 x i32], ptr %2, i64 0, i64 %indvars.iv
  store i32 %34, ptr %35, align 4, !tbaa !42
  %36 = sext i32 %33 to i64
  %37 = getelementptr inbounds i32, ptr %.val39, i64 %36
  %38 = load i32, ptr %37, align 4, !tbaa !42
  %.not40 = icmp eq i32 %38, 1
  br i1 %.not40, label %39, label %44

39:                                               ; preds = %31
  %40 = trunc nuw nsw i64 %indvars.iv to i32
  %41 = shl nuw i32 1, %40
  %42 = or i32 %.044, %41
  %43 = or disjoint i32 %34, 1
  store i32 %43, ptr %35, align 4, !tbaa !42
  br label %44

44:                                               ; preds = %31, %39
  %.1 = phi i32 [ %42, %39 ], [ %.044, %31 ]
  %indvars.iv.next = add nuw nsw i64 %indvars.iv, 1
  %45 = icmp samesign ult i64 %indvars.iv.next, %30
  br i1 %45, label %31, label %.critedge, !llvm.loop !43

.critedge:                                        ; preds = %44, %19
  %.0.lcssa = phi i32 [ 0, %19 ], [ %.1, %44 ]
  %46 = getelementptr inbounds nuw i8, ptr %0, i64 236
  %47 = and i32 %.0.lcssa, 31
  %48 = shl nuw i32 1, %47
  %49 = ashr i32 %.0.lcssa, 5
  %50 = sext i32 %49 to i64
  %51 = getelementptr inbounds i32, ptr %46, i64 %50
  %52 = load i32, ptr %51, align 4, !tbaa !42
  %53 = or i32 %52, %48
  store i32 %53, ptr %51, align 4, !tbaa !42
  %.val37 = load i32, ptr %26, align 4, !tbaa !38
  %54 = sext i32 %.val37 to i64
  %55 = getelementptr inbounds i32, ptr %2, i64 %54
  %56 = call i32 @sat_solver_addclause(ptr noundef %.pre47, ptr noundef nonnull %2, ptr noundef nonnull %55) #8
  %57 = icmp ne i32 %56, 0
  %. = zext i1 %57 to i32
  br label %58

58:                                               ; preds = %.critedge, %.thread, %5, %18
  %.030 = phi i32 [ 0, %18 ], [ -1, %5 ], [ -1, %.thread ], [ %., %.critedge ]
  call void @llvm.lifetime.end.p0(i64 48, ptr nonnull %2) #8
  ret i32 %.030
}